; Function Attrs: mustprogress nofree norecurse nosync nounwind willreturn memory(readwrite, inaccessiblemem: none) uwtable
define dso_local noundef ptr @PyGen_GetCode(ptr noundef readonly captures(none) %0) local_unnamed_addr #0 {
  %2 = getelementptr i8, ptr %0, i64 72
  %.val = load i64, ptr %2, align 8, !tbaa !4
  %3 = inttoptr i64 %.val to ptr
  %4 = load i32, ptr %3, align 8, !tbaa !4
  %5 = icmp slt i32 %4, 0
  br i1 %5, label %Py_INCREF.exit, label %6

6:                                                ; preds = %1
  %7 = add nuw i32 %4, 1
  store i32 %7, ptr %3, align 8, !tbaa !4
  br label %Py_INCREF.exit

Py_INCREF.exit:                                   ; preds = %1, %6
  ret ptr %3
}